target datalayout = "e-m:e-p270:32:32-p271:32:32-p272:64:64-i64:64-i128:128-f80:128-n8:16:32:64-S128"
target triple = "x86_64-pc-linux-gnu"

%"class.pxr::rapidjson::internal::Stack" = type { ptr, ptr, ptr, ptr, ptr, i64 }
%"class.pxr::rapidjson::Writer.10" = type <{ ptr, %"class.pxr::rapidjson::internal::Stack", i32, i8, [3 x i8] }>

; Function Attrs: mustprogress nounwind uwtable
define linkonce_odr void @_ZN3pxr9rapidjson12CrtAllocator4FreeEPv(ptr noundef %0) #5 comdat align 2 {
  %2 = alloca ptr, align 8
  store ptr %0, ptr %2, align 8
  %3 = load ptr, ptr %2, align 8
  call void @free(ptr noundef %3) #3
  ret void
}

; Function Attrs: noreturn nounwind uwtable
define linkonce_odr hidden void @__clang_call_terminate(ptr noundef %0) #9 comdat {
  %2 = call ptr @__cxa_begin_catch(ptr %0) #3
  call void @_ZSt9terminatev() #17
  unreachable
}

; Function Attrs: mustprogress nounwind uwtable
define linkonce_odr void @_ZN3pxr9rapidjson8internal5StackINS0_12CrtAllocatorEE7DestroyEv(ptr noundef nonnull align 8 dereferenceable(48) %0) #5 comdat align 2 {
  %2 = alloca ptr, align 8
  store ptr %0, ptr %2, align 8
  %3 = load ptr, ptr %2, align 8
  %4 = getelementptr inbounds nuw %"class.pxr::rapidjson::internal::Stack", ptr %3, i32 0, i32 2
  %5 = load ptr, ptr %4, align 8
  call void @_ZN3pxr9rapidjson12CrtAllocator4FreeEPv(ptr noundef %5) #3
  %6 = getelementptr inbounds nuw %"class.pxr::rapidjson::internal::Stack", ptr %3, i32 0, i32 1
  %7 = load ptr, ptr %6, align 8
  %8 = icmp eq ptr %7, null
  br i1 %8, label %10, label %9

9:                                                ; preds = %1
  call void @_ZdlPvm(ptr noundef %7, i64 noundef 1) #19
  br label %10

10:                                               ; preds = %9, %1
  ret void
}

; Function Attrs: mustprogress nounwind uwtable
define linkonce_odr void @_ZN3pxr9rapidjson8internal5StackINS0_12CrtAllocatorEED2Ev(ptr noundef nonnull align 8 dereferenceable(48) %0) unnamed_addr #5 comdat align 2 personality ptr @__gxx_personality_v0 {
  %2 = alloca ptr, align 8
  store ptr %0, ptr %2, align 8
  %3 = load ptr, ptr %2, align 8
  invoke void @_ZN3pxr9rapidjson8internal5StackINS0_12CrtAllocatorEE7DestroyEv(ptr noundef nonnull align 8 dereferenceable(48) %3)
          to label %4 unwind label %5

4:                                                ; preds = %1
  ret void

5:                                                ; preds = %1
  %6 = landingpad { ptr, i32 }
          catch ptr null
  %7 = extractvalue { ptr, i32 } %6, 0
  call void @__clang_call_terminate(ptr %7) #17
  unreachable
}

; Function Attrs: mustprogress nounwind uwtable
define linkonce_odr void @_ZN3pxr9rapidjson6WriterINS0_19GenericStringBufferINS0_4UTF8IcEENS0_12CrtAllocatorEEES4_S4_S5_Lj0EED2Ev(ptr noundef nonnull align 8 dereferenceable(61) %0) unnamed_addr #5 comdat align 2 {
  %2 = alloca ptr, align 8
  store ptr %0, ptr %2, align 8
  %3 = load ptr, ptr %2, align 8
  %4 = getelementptr inbounds nuw %"class.pxr::rapidjson::Writer.10", ptr %3, i32 0, i32 1
  call void @_ZN3pxr9rapidjson8internal5StackINS0_12CrtAllocatorEED2Ev(ptr noundef nonnull align 8 dereferenceable(48) %4) #3
  ret void
}

; Function Attrs: mustprogress nounwind uwtable
define linkonce_odr void @_ZN3pxr9rapidjson12PrettyWriterINS0_19GenericStringBufferINS0_4UTF8IcEENS0_12CrtAllocatorEEES4_S4_S5_Lj0EED2Ev(ptr noundef nonnull align 8 dereferenceable(72) %0) unnamed_addr #5 comdat align 2 {
  %2 = alloca ptr, align 8
  store ptr %0, ptr %2, align 8
  %3 = load ptr, ptr %2, align 8
  call void @_ZN3pxr9rapidjson6WriterINS0_19GenericStringBufferINS0_4UTF8IcEENS0_12CrtAllocatorEEES4_S4_S5_Lj0EED2Ev(ptr noundef nonnull align 8 dereferenceable(61) %3) #3
  ret void
}

; Function Attrs: mustprogress nounwind uwtable
define internal void @_ZN12_GLOBAL__N_110_WriterFixIN3pxr9rapidjson12PrettyWriterINS2_19GenericStringBufferINS2_4UTF8IcEENS2_12CrtAllocatorEEES6_S6_S7_Lj0EEEED2Ev(ptr noundef nonnull align 8 dereferenceable(72) %0) unnamed_addr #5 align 2 {
  %2 = alloca ptr, align 8
  store ptr %0, ptr %2, align 8
  %3 = load ptr, ptr %2, align 8
  call void @_ZN3pxr9rapidjson12PrettyWriterINS0_19GenericStringBufferINS0_4UTF8IcEENS0_12CrtAllocatorEEES4_S4_S5_Lj0EED2Ev(ptr noundef nonnull align 8 dereferenceable(72) %3) #3
  ret void
}