; Function Attrs: mustprogress nounwind uwtable
define internal fastcc void @_ZN12_GLOBAL__N_110_WriterFixIN3pxr9rapidjson12PrettyWriterINS2_19GenericStringBufferINS2_4UTF8IcEENS2_12CrtAllocatorEEES6_S6_S7_Lj0EEEED2Ev(ptr noundef nonnull readonly align 8 captures(none) dereferenceable(72) %0) unnamed_addr #4 align 2 personality ptr @__gxx_personality_v0 {
  %2 = getelementptr inbounds nuw i8, ptr %0, i64 24
  %3 = load ptr, ptr %2, align 8
  tail call void @free(ptr noundef %3) #24
  %4 = getelementptr inbounds nuw i8, ptr %0, i64 16
  %5 = load ptr, ptr %4, align 8
  %6 = icmp eq ptr %5, null
  br i1 %6, label %_ZN3pxr9rapidjson12PrettyWriterINS0_19GenericStringBufferINS0_4UTF8IcEENS0_12CrtAllocatorEEES4_S4_S5_Lj0EED2Ev.exit, label %7

7:                                                ; preds = %1
  tail call void @_ZdlPvm(ptr noundef nonnull %5, i64 noundef 1) #25
  br label %_ZN3pxr9rapidjson12PrettyWriterINS0_19GenericStringBufferINS0_4UTF8IcEENS0_12CrtAllocatorEEES4_S4_S5_Lj0EED2Ev.exit

_ZN3pxr9rapidjson12PrettyWriterINS0_19GenericStringBufferINS0_4UTF8IcEENS0_12CrtAllocatorEEES4_S4_S5_Lj0EED2Ev.exit: ; preds = %1, %7
  ret void
}